; Function Attrs: mustprogress nofree norecurse nosync nounwind willreturn memory(read, inaccessiblemem: none) uwtable
define hidden noundef ptr @_ZNK19OpenColorIO_v2_5dev24ColorSpaceMenuHelperImpl17getHierarchyLevelEmm(ptr noundef nonnull readonly align 8 captures(none) dereferenceable(216) %0, i64 noundef %1, i64 noundef %2) unnamed_addr #9 align 2 {
  %4 = getelementptr inbounds nuw i8, ptr %0, i64 192
  %5 = getelementptr inbounds nuw i8, ptr %0, i64 200
  %6 = load ptr, ptr %5, align 8, !tbaa !156
  %7 = load ptr, ptr %4, align 8, !tbaa !153
  %8 = ptrtoint ptr %6 to i64
  %9 = ptrtoint ptr %7 to i64
  %10 = sub i64 %8, %9
  %11 = ashr exact i64 %10, 4
  %12 = icmp ult i64 %1, %11
  br i1 %12, label %13, label %_ZNK19OpenColorIO_v2_5dev14ColorSpaceInfo17getHierarchyLevelEm.exit

13:                                               ; preds = %3
  %14 = getelementptr inbounds nuw %"class.std::shared_ptr", ptr %7, i64 %1
  %15 = load ptr, ptr %14, align 8, !tbaa !3
  %16 = getelementptr inbounds nuw i8, ptr %15, i64 136
  %17 = getelementptr inbounds nuw i8, ptr %15, i64 144
  %18 = load ptr, ptr %17, align 8, !tbaa !68
  %19 = load ptr, ptr %16, align 8, !tbaa !65
  %20 = ptrtoint ptr %18 to i64
  %21 = ptrtoint ptr %19 to i64
  %22 = sub i64 %20, %21
  %23 = ashr exact i64 %22, 5
  %24 = icmp ult i64 %2, %23
  br i1 %24, label %25, label %_ZNK19OpenColorIO_v2_5dev14ColorSpaceInfo17getHierarchyLevelEm.exit

25:                                               ; preds = %13
  %26 = getelementptr inbounds nuw %"class.std::__cxx11::basic_string", ptr %19, i64 %2
  %27 = load ptr, ptr %26, align 8, !tbaa !54
  br label %_ZNK19OpenColorIO_v2_5dev14ColorSpaceInfo17getHierarchyLevelEm.exit

_ZNK19OpenColorIO_v2_5dev14ColorSpaceInfo17getHierarchyLevelEm.exit: ; preds = %25, %13, %3
  %.0 = phi ptr [ @.str.2, %3 ], [ %27, %25 ], [ @.str.2, %13 ]
  ret ptr %.0
}